ccopy_reg
_reconstructor
p1
(cnetworkx.classes.graph
Graph
p2
c__builtin__
object
p3
NtRp4
(dp5
S'node'
p6
(dp7
I0
(dp8
sI1
(dp9
sI2
(dp10
sI3
(dp11
sI4
(dp12
sI5
(dp13
sI6
(dp14
sI7
(dp15
sI8
(dp16
sI9
(dp17
sI10
(dp18
sI11
(dp19
sI12
(dp20
sI13
(dp21
sI14
(dp22
sI15
(dp23
sI16
(dp24
sI17
(dp25
sI18
(dp26
sI19
(dp27
sI20
(dp28
sI21
(dp29
sI22
(dp30
sI23
(dp31
sI24
(dp32
sI25
(dp33
sI26
(dp34
sI27
(dp35
sI28
(dp36
sI29
(dp37
sI30
(dp38
sI31
(dp39
sI32
(dp40
sI33
(dp41
sI34
(dp42
sI35
(dp43
sI36
(dp44
sI37
(dp45
sI38
(dp46
sI39
(dp47
sI40
(dp48
sI41
(dp49
sI42
(dp50
sI43
(dp51
sI44
(dp52
sI45
(dp53
sI46
(dp54
sI47
(dp55
sI48
(dp56
sI49
(dp57
sI50
(dp58
sI51
(dp59
sI52
(dp60
sI53
(dp61
sI54
(dp62
sI55
(dp63
sI56
(dp64
sI57
(dp65
sI58
(dp66
sI59
(dp67
sI60
(dp68
sI61
(dp69
sI62
(dp70
sI63
(dp71
sI64
(dp72
sI65
(dp73
sI66
(dp74
sI67
(dp75
sI68
(dp76
sI69
(dp77
sI70
(dp78
sI71
(dp79
sI72
(dp80
sI73
(dp81
sI74
(dp82
sI75
(dp83
sI76
(dp84
sI77
(dp85
sI78
(dp86
sI79
(dp87
sI80
(dp88
sI81
(dp89
sI82
(dp90
sI83
(dp91
sI84
(dp92
sI85
(dp93
sI86
(dp94
sI87
(dp95
sI88
(dp96
sI89
(dp97
sI90
(dp98
sI91
(dp99
sI92
(dp100
sI93
(dp101
sI94
(dp102
sI95
(dp103
sI96
(dp104
sI97
(dp105
sI98
(dp106
sI99
(dp107
sI100
(dp108
sI101
(dp109
sI102
(dp110
sI103
(dp111
sI104
(dp112
sI105
(dp113
sI106
(dp114
sI107
(dp115
sI108
(dp116
sI109
(dp117
sI110
(dp118
sI111
(dp119
sI112
(dp120
sI113
(dp121
sI114
(dp122
sI115
(dp123
sI116
(dp124
sI117
(dp125
sI118
(dp126
sI119
(dp127
ssS'graph'
p128
(dp129
S'name'
p130
S'()'
p131
ssS'edge'
p132
(dp133
I0
(dp134
I38
(dp135
S'weight'
p136
I7
ssI39
(dp137
g136
I6
ssI104
(dp138
g136
I5
ssI73
(dp139
g136
I5
ssI44
(dp140
g136
I5
ssI47
(dp141
g136
I4
ssI76
(dp142
g136
I5
ssI105
(dp143
g136
I5
ssI27
(dp144
g136
I5
sssI1
(dp145
I65
(dp146
g136
I5
ssI34
(dp147
g136
I5
ssI35
(dp148
g136
I5
ssI4
(dp149
g136
I5
ssI8
(dp150
g136
I6
ssI73
(dp151
g136
I6
ssI74
(dp152
g136
I5
ssI75
(dp153
g136
I5
ssI76
(dp154
g136
I7
ssI2
(dp155
g136
I5
ssI77
(dp156
g136
I5
ssI80
(dp157
g136
I5
ssI113
(dp158
g136
I7
ssI86
(dp159
g136
I4
ssI24
(dp160
g136
I5
ssI26
(dp161
g136
I6
ssI111
(dp162
g136
I4
ssI108
(dp163
g136
I7
ssI62
(dp164
g136
I5
sssI2
(dp165
I1
g155
sI34
(dp166
g136
I5
ssI35
(dp167
g136
I6
ssI4
(dp168
g136
I4
ssI65
(dp169
g136
I5
ssI81
(dp170
g136
I7
ssI8
(dp171
g136
I5
ssI9
(dp172
g136
I6
ssI74
(dp173
g136
I6
ssI75
(dp174
g136
I5
ssI77
(dp175
g136
I5
ssI111
(dp176
g136
I6
ssI80
(dp177
g136
I5
ssI113
(dp178
g136
I6
ssI86
(dp179
g136
I6
ssI24
(dp180
g136
I5
ssI26
(dp181
g136
I5
ssI60
(dp182
g136
I7
ssI62
(dp183
g136
I5
sssI3
(dp184
I64
(dp185
g136
I7
ssI46
(dp186
g136
I4
ssI79
(dp187
g136
I6
ssI50
(dp188
g136
I7
ssI83
(dp189
g136
I6
ssI84
(dp190
g136
I7
ssI85
(dp191
g136
I6
ssI87
(dp192
g136
I5
ssI88
(dp193
g136
I5
sssI4
(dp194
I1
g149
sI2
g168
sI35
(dp195
g136
I6
ssI5
(dp196
g136
I7
ssI65
(dp197
g136
I5
ssI8
(dp198
g136
I5
ssI9
(dp199
g136
I5
ssI74
(dp200
g136
I7
ssI75
(dp201
g136
I5
ssI34
(dp202
g136
I5
ssI77
(dp203
g136
I5
ssI80
(dp204
g136
I5
ssI113
(dp205
g136
I6
ssI50
(dp206
g136
I7
ssI86
(dp207
g136
I6
ssI24
(dp208
g136
I5
ssI89
(dp209
g136
I7
ssI26
(dp210
g136
I5
ssI111
(dp211
g136
I6
ssI90
(dp212
g136
I7
ssI62
(dp213
g136
I5
sssI5
(dp214
I4
g196
sI8
(dp215
g136
I7
ssI9
(dp216
g136
I5
ssI72
(dp217
g136
I6
ssI50
(dp218
g136
I4
ssI24
(dp219
g136
I5
ssI68
(dp220
g136
I7
ssI26
(dp221
g136
I5
sssI6
(dp222
I19
(dp223
g136
I6
ssI25
(dp224
g136
I6
ssI115
(dp225
g136
I6
ssI7
(dp226
g136
I6
ssI119
(dp227
g136
I6
sssI7
(dp228
I115
(dp229
g136
I6
ssI6
g226
sI119
(dp230
g136
I6
sssI8
(dp231
I1
g150
sI2
g171
sI4
g198
sI5
g215
sI72
(dp232
g136
I4
ssI9
(dp233
g136
I4
ssI74
(dp234
g136
I6
ssI75
(dp235
g136
I5
ssI108
(dp236
g136
I7
ssI110
(dp237
g136
I7
ssI15
(dp238
g136
I7
ssI50
(dp239
g136
I7
ssI51
(dp240
g136
I7
ssI20
(dp241
g136
I6
ssI24
(dp242
g136
I5
ssI68
(dp243
g136
I7
ssI26
(dp244
g136
I5
ssI111
(dp245
g136
I7
ssI90
(dp246
g136
I4
ssI62
(dp247
g136
I5
sssI9
(dp248
I2
g172
sI4
g199
sI5
g216
sI8
g233
sI13
(dp249
g136
I7
ssI15
(dp250
g136
I6
ssI20
(dp251
g136
I5
ssI24
(dp252
g136
I5
ssI25
(dp253
g136
I7
ssI26
(dp254
g136
I5
ssI50
(dp255
g136
I5
ssI51
(dp256
g136
I7
ssI52
(dp257
g136
I7
ssI56
(dp258
g136
I7
ssI62
(dp259
g136
I6
ssI68
(dp260
g136
I4
ssI72
(dp261
g136
I7
ssI74
(dp262
g136
I6
ssI75
(dp263
g136
I5
ssI89
(dp264
g136
I7
ssI90
(dp265
g136
I7
ssI92
(dp266
g136
I7
ssI96
(dp267
g136
I7
ssI106
(dp268
g136
I7
ssI110
(dp269
g136
I7
sssI10
(dp270
I96
(dp271
g136
I5
ssI36
(dp272
g136
I6
ssI49
(dp273
g136
I4
ssI75
(dp274
g136
I5
ssI78
(dp275
g136
I5
ssI17
(dp276
g136
I5
ssI95
(dp277
g136
I6
sssI11
(dp278
I107
(dp279
g136
I5
ssI84
(dp280
g136
I7
ssI102
(dp281
g136
I5
ssI22
(dp282
g136
I4
ssI85
(dp283
g136
I7
sssI12
(dp284
I112
(dp285
g136
I5
ssI48
(dp286
g136
I5
ssI13
(dp287
g136
I4
ssI111
(dp288
g136
I5
ssI16
(dp289
g136
I4
ssI19
(dp290
g136
I5
ssI116
(dp291
g136
I6
ssI23
(dp292
g136
I5
ssI25
(dp293
g136
I5
ssI92
(dp294
g136
I5
ssI93
(dp295
g136
I5
sssI13
(dp296
I16
(dp297
g136
I5
ssI9
g249
sI12
g287
sI112
(dp298
g136
I6
ssI111
(dp299
g136
I6
ssI48
(dp300
g136
I5
ssI19
(dp301
g136
I6
ssI116
(dp302
g136
I6
ssI23
(dp303
g136
I5
ssI25
(dp304
g136
I6
ssI92
(dp305
g136
I5
ssI93
(dp306
g136
I5
sssI14
(dp307
I67
(dp308
g136
I6
ssI68
(dp309
g136
I6
ssI69
(dp310
g136
I5
ssI70
(dp311
g136
I6
ssI71
(dp312
g136
I6
ssI72
(dp313
g136
I5
ssI117
(dp314
g136
I6
ssI89
(dp315
g136
I7
ssI94
(dp316
g136
I4
sssI15
(dp317
I8
g238
sI9
g250
sI20
(dp318
g136
I4
sssI16
(dp319
I112
(dp320
g136
I5
ssI12
g289
sI13
g297
sI111
(dp321
g136
I6
ssI48
(dp322
g136
I5
ssI116
(dp323
g136
I6
ssI23
(dp324
g136
I6
ssI92
(dp325
g136
I5
ssI93
(dp326
g136
I7
sssI17
(dp327
I49
(dp328
g136
I5
ssI10
g276
sI75
(dp329
g136
I5
ssI36
(dp330
g136
I7
ssI78
(dp331
g136
I6
sssI18
(dp332
I96
(dp333
g136
I6
ssI21
(dp334
g136
I4
ssI95
(dp335
g136
I6
sssI19
(dp336
I6
g223
sI55
(dp337
g136
I5
ssI12
g290
sI13
g301
sI111
(dp338
g136
I6
ssI115
(dp339
g136
I5
ssI116
(dp340
g136
I6
ssI53
(dp341
g136
I5
ssI23
(dp342
g136
I5
ssI25
(dp343
g136
I4
ssI119
(dp344
g136
I5
ssI93
(dp345
g136
I7
sssI20
(dp346
I8
g241
sI9
g251
sI15
g318
ssI21
(dp347
I96
(dp348
g136
I7
ssI49
(dp349
g136
I7
ssI18
g334
sI95
(dp350
g136
I7
sssI22
(dp351
I107
(dp352
g136
I5
ssI102
(dp353
g136
I5
ssI40
(dp354
g136
I7
ssI41
(dp355
g136
I7
ssI11
g282
sI84
(dp356
g136
I5
ssI85
(dp357
g136
I6
sssI23
(dp358
I48
(dp359
g136
I6
ssI55
(dp360
g136
I6
ssI12
g292
sI13
g303
sI111
(dp361
g136
I6
ssI16
g324
sI19
g342
sI116
(dp362
g136
I7
ssI53
(dp363
g136
I6
ssI23
(dp364
g136
I7
ssI25
(dp365
g136
I5
ssI92
(dp366
g136
I6
ssI93
(dp367
g136
I4
sssI24
(dp368
I1
g160
sI2
g180
sI4
g208
sI5
g219
sI65
(dp369
g136
I5
ssI8
g242
sI9
g252
sI75
(dp370
g136
I5
ssI77
(dp371
g136
I5
ssI111
(dp372
g136
I6
ssI80
(dp373
g136
I5
ssI81
(dp374
g136
I6
ssI50
(dp375
g136
I5
ssI86
(dp376
g136
I6
ssI89
(dp377
g136
I5
ssI26
(dp378
g136
I4
ssI59
(dp379
g136
I6
ssI60
(dp380
g136
I6
ssI90
(dp381
g136
I5
ssI62
(dp382
g136
I5
sssI25
(dp383
I32
(dp384
g136
I6
ssI115
(dp385
g136
I6
ssI6
g224
sI9
g253
sI55
(dp386
g136
I7
ssI12
g293
sI13
g304
sI111
(dp387
g136
I6
ssI19
g343
sI116
(dp388
g136
I6
ssI53
(dp389
g136
I6
ssI23
g365
sI119
(dp390
g136
I5
ssI93
(dp391
g136
I6
sssI26
(dp392
I1
g161
sI2
g181
sI4
g210
sI5
g221
sI65
(dp393
g136
I6
ssI8
g244
sI9
g254
sI75
(dp394
g136
I5
ssI77
(dp395
g136
I5
ssI111
(dp396
g136
I6
ssI80
(dp397
g136
I5
ssI81
(dp398
g136
I6
ssI50
(dp399
g136
I5
ssI86
(dp400
g136
I6
ssI24
g378
sI89
(dp401
g136
I5
ssI90
(dp402
g136
I5
ssI60
(dp403
g136
I6
ssI62
(dp404
g136
I5
sssI27
(dp405
I0
g144
sI38
(dp406
g136
I5
ssI39
(dp407
g136
I5
ssI73
(dp408
g136
I5
ssI44
(dp409
g136
I5
ssI47
(dp410
g136
I5
ssI76
(dp411
g136
I5
sssI28
(dp412
I82
(dp413
g136
I6
ssI29
(dp414
g136
I4
ssI79
(dp415
g136
I5
sssI29
(dp416
I64
(dp417
g136
I6
ssI34
(dp418
g136
I7
ssI75
(dp419
g136
I6
ssI79
(dp420
g136
I4
ssI49
(dp421
g136
I6
ssI82
(dp422
g136
I5
ssI28
g414
ssI30
(dp423
I114
(dp424
g136
I6
ssI116
(dp425
g136
I6
ssI31
(dp426
g136
I4
sssI31
(dp427
I40
(dp428
g136
I7
ssI114
(dp429
g136
I5
ssI116
(dp430
g136
I5
ssI109
(dp431
g136
I4
ssI30
g426
ssI32
(dp432
I96
(dp433
g136
I5
ssI65
(dp434
g136
I7
ssI33
(dp435
g136
I4
ssI54
(dp436
g136
I5
ssI25
g384
sI91
(dp437
g136
I6
ssI95
(dp438
g136
I5
sssI33
(dp439
I32
g435
sI96
(dp440
g136
I5
ssI91
(dp441
g136
I6
ssI54
(dp442
g136
I5
ssI95
(dp443
g136
I5
sssI34
(dp444
I1
g147
sI2
g166
sI35
(dp445
g136
I5
ssI4
g202
sI65
(dp446
g136
I5
ssI74
(dp447
g136
I5
ssI75
(dp448
g136
I5
ssI77
(dp449
g136
I5
ssI111
(dp450
g136
I6
ssI80
(dp451
g136
I5
ssI113
(dp452
g136
I7
ssI86
(dp453
g136
I5
ssI29
g418
sI62
(dp454
g136
I5
sssI35
(dp455
I1
g148
sI2
g167
sI4
g195
sI65
(dp456
g136
I6
ssI74
(dp457
g136
I6
ssI75
(dp458
g136
I5
ssI34
g445
sI77
(dp459
g136
I5
ssI80
(dp460
g136
I5
ssI113
(dp461
g136
I7
ssI86
(dp462
g136
I6
ssI62
(dp463
g136
I6
sssI36
(dp464
I17
g330
sI10
g272
sI75
(dp465
g136
I6
ssI78
(dp466
g136
I7
ssI49
(dp467
g136
I6
sssI37
(dp468
I97
(dp469
g136
I4
ssI66
(dp470
g136
I5
ssI98
(dp471
g136
I4
ssI102
(dp472
g136
I5
ssI40
(dp473
g136
I5
ssI41
(dp474
g136
I5
ssI107
(dp475
g136
I5
ssI45
(dp476
g136
I4
ssI63
(dp477
g136
I5
sssI38
(dp478
I0
g135
sI39
(dp479
g136
I4
ssI73
(dp480
g136
I5
ssI76
(dp481
g136
I5
ssI47
(dp482
g136
I6
ssI56
(dp483
g136
I7
ssI27
g406
sI44
(dp484
g136
I6
sssI39
(dp485
I0
g137
sI38
g479
sI73
(dp486
g136
I5
ssI76
(dp487
g136
I5
ssI47
(dp488
g136
I6
ssI56
(dp489
g136
I7
ssI27
g407
sI44
(dp490
g136
I6
sssI40
(dp491
I97
(dp492
g136
I6
ssI66
(dp493
g136
I5
ssI37
g473
sI102
(dp494
g136
I5
ssI41
(dp495
g136
I4
ssI107
(dp496
g136
I5
ssI45
(dp497
g136
I5
ssI22
g354
sI98
(dp498
g136
I5
ssI63
(dp499
g136
I5
ssI31
g428
ssI41
(dp500
I97
(dp501
g136
I6
ssI66
(dp502
g136
I6
ssI37
g474
sI102
(dp503
g136
I5
ssI40
g495
sI107
(dp504
g136
I5
ssI45
(dp505
g136
I5
ssI22
g355
sI98
(dp506
g136
I5
ssI63
(dp507
g136
I6
sssI42
(dp508
I100
(dp509
g136
I6
ssI101
(dp510
g136
I6
ssI73
(dp511
g136
I6
ssI74
(dp512
g136
I5
ssI43
(dp513
g136
I4
ssI76
(dp514
g136
I5
ssI47
(dp515
g136
I7
ssI108
(dp516
g136
I6
sssI43
(dp517
I100
(dp518
g136
I7
ssI101
(dp519
g136
I6
ssI73
(dp520
g136
I6
ssI42
g513
sI76
(dp521
g136
I6
ssI108
(dp522
g136
I7
ssI105
(dp523
g136
I7
ssI74
(dp524
g136
I6
sssI44
(dp525
I0
g140
sI38
g484
sI39
g490
sI73
(dp526
g136
I5
ssI76
(dp527
g136
I5
ssI47
(dp528
g136
I5
ssI27
g409
ssI45
(dp529
I97
(dp530
g136
I4
ssI66
(dp531
g136
I5
ssI37
g476
sI102
(dp532
g136
I5
ssI40
g497
sI41
g505
sI107
(dp533
g136
I5
ssI98
(dp534
g136
I4
ssI63
(dp535
g136
I5
sssI46
(dp536
I64
(dp537
g136
I7
ssI3
g186
sI79
(dp538
g136
I6
ssI83
(dp539
g136
I6
ssI84
(dp540
g136
I7
ssI85
(dp541
g136
I7
ssI87
(dp542
g136
I5
ssI88
(dp543
g136
I5
sssI47
(dp544
I0
g141
sI38
g482
sI39
g488
sI104
(dp545
g136
I5
ssI73
(dp546
g136
I5
ssI42
g515
sI44
g528
sI76
(dp547
g136
I5
ssI105
(dp548
g136
I5
ssI27
g410
ssI48
(dp549
I112
(dp550
g136
I7
ssI12
g286
sI13
g300
sI16
g322
sI23
g359
sI92
(dp551
g136
I5
ssI93
(dp552
g136
I5
sssI49
(dp553
I96
(dp554
g136
I5
ssI36
g467
sI10
g273
sI75
(dp555
g136
I5
ssI78
(dp556
g136
I5
ssI79
(dp557
g136
I7
ssI17
g328
sI21
g349
sI29
g421
sI95
(dp558
g136
I5
sssI50
(dp559
I3
g188
sI4
g206
sI5
g218
sI8
g239
sI9
g255
sI72
(dp560
g136
I7
ssI117
(dp561
g136
I7
ssI24
g375
sI68
(dp562
g136
I6
ssI26
g399
ssI51
(dp563
I8
g240
sI9
g256
ssI52
(dp564
I9
g257
ssI53
(dp565
I19
g341
sI23
g363
sI111
(dp566
g136
I6
ssI115
(dp567
g136
I5
ssI116
(dp568
g136
I7
ssI55
(dp569
g136
I5
ssI25
g389
sI119
(dp570
g136
I5
ssI93
(dp571
g136
I6
sssI54
(dp572
I32
g436
sI33
g442
sI96
(dp573
g136
I5
ssI87
(dp574
g136
I7
ssI91
(dp575
g136
I5
ssI95
(dp576
g136
I5
sssI55
(dp577
I19
g337
sI119
(dp578
g136
I5
ssI111
(dp579
g136
I7
ssI115
(dp580
g136
I5
ssI116
(dp581
g136
I6
ssI53
g569
sI23
g360
sI25
g386
sI93
(dp582
g136
I6
sssI56
(dp583
I38
g483
sI39
g489
sI9
g258
sI83
(dp584
g136
I6
ssI87
(dp585
g136
I7
ssI57
(dp586
g136
I4
sssI57
(dp587
I56
g586
sI83
(dp588
g136
I7
sssI58
(dp589
I81
(dp590
g136
I6
ssI79
(dp591
g136
I7
ssI60
(dp592
g136
I5
ssI61
(dp593
g136
I7
ssI89
(dp594
g136
I5
sssI59
(dp595
I24
g379
sI64
(dp596
g136
I4
sssI60
(dp597
I2
g182
sI77
(dp598
g136
I5
ssI80
(dp599
g136
I5
ssI81
(dp600
g136
I4
ssI26
g403
sI24
g380
sI89
(dp601
g136
I5
ssI58
g592
sI90
(dp602
g136
I5
sssI61
(dp603
I58
g593
sI79
(dp604
g136
I6
sssI62
(dp605
I1
g164
sI2
g183
sI35
g463
sI4
g213
sI65
(dp606
g136
I4
ssI8
g247
sI9
g259
sI75
(dp607
g136
I5
ssI34
g454
sI78
(dp608
g136
I7
ssI77
(dp609
g136
I5
ssI80
(dp610
g136
I6
ssI113
(dp611
g136
I7
ssI86
(dp612
g136
I6
ssI24
g382
sI26
g404
sI111
(dp613
g136
I5
sssI63
(dp614
I97
(dp615
g136
I6
ssI66
(dp616
g136
I6
ssI37
g477
sI102
(dp617
g136
I7
ssI40
g499
sI41
g507
sI45
g535
sI98
(dp618
g136
I6
sssI64
(dp619
I3
g185
sI74
(dp620
g136
I6
ssI46
g537
sI79
(dp621
g136
I6
ssI83
(dp622
g136
I7
ssI59
g596
sI29
g417
ssI65
(dp623
I32
g434
sI1
g146
sI2
g169
sI35
g456
sI4
g197
sI75
(dp624
g136
I7
ssI34
g446
sI77
(dp625
g136
I7
ssI80
(dp626
g136
I7
ssI86
(dp627
g136
I5
ssI24
g369
sI26
g393
sI111
(dp628
g136
I5
ssI62
g606
ssI66
(dp629
I97
(dp630
g136
I5
ssI98
(dp631
g136
I5
ssI37
g470
sI102
(dp632
g136
I6
ssI40
g493
sI41
g502
sI107
(dp633
g136
I6
ssI45
g531
sI63
g616
ssI67
(dp634
I68
(dp635
g136
I6
ssI69
(dp636
g136
I5
ssI70
(dp637
g136
I7
ssI71
(dp638
g136
I7
ssI72
(dp639
g136
I5
ssI14
g308
sI117
(dp640
g136
I6
ssI118
(dp641
g136
I6
ssI94
(dp642
g136
I5
sssI68
(dp643
I67
g635
sI5
g220
sI70
(dp644
g136
I6
ssI71
(dp645
g136
I6
ssI8
g243
sI9
g260
sI14
g309
sI72
(dp646
g136
I4
ssI50
g562
sI117
(dp647
g136
I5
ssI118
(dp648
g136
I5
ssI89
(dp649
g136
I5
ssI90
(dp650
g136
I4
ssI92
(dp651
g136
I7
ssI94
(dp652
g136
I5
ssI69
(dp653
g136
I5
sssI69
(dp654
I67
g636
sI68
g653
sI70
(dp655
g136
I6
ssI71
(dp656
g136
I7
ssI72
(dp657
g136
I7
ssI14
g310
sI117
(dp658
g136
I5
ssI118
(dp659
g136
I7
ssI94
(dp660
g136
I7
sssI70
(dp661
I67
g637
sI68
g644
sI69
g655
sI71
(dp662
g136
I4
ssI72
(dp663
g136
I5
ssI14
g311
sI117
(dp664
g136
I5
ssI118
(dp665
g136
I6
ssI94
(dp666
g136
I6
sssI71
(dp667
I67
g638
sI68
g645
sI69
g656
sI70
g662
sI72
(dp668
g136
I5
ssI14
g312
sI117
(dp669
g136
I6
ssI118
(dp670
g136
I6
ssI94
(dp671
g136
I6
sssI72
(dp672
I67
g639
sI68
g646
sI5
g217
sI70
g663
sI71
g668
sI8
g232
sI9
g261
sI14
g313
sI50
g560
sI117
(dp673
g136
I5
ssI118
(dp674
g136
I6
ssI89
(dp675
g136
I5
ssI90
(dp676
g136
I4
ssI94
(dp677
g136
I5
ssI69
g657
ssI73
(dp678
I0
g139
sI1
g151
sI100
(dp679
g136
I7
ssI101
(dp680
g136
I5
ssI38
g480
sI39
g486
sI104
(dp681
g136
I5
ssI76
(dp682
g136
I4
ssI42
g511
sI43
g520
sI44
g526
sI47
g546
sI86
(dp683
g136
I7
ssI105
(dp684
g136
I5
ssI111
(dp685
g136
I7
ssI27
g408
sI74
(dp686
g136
I5
sssI74
(dp687
I64
g620
sI1
g152
sI2
g173
sI35
g457
sI4
g200
sI101
(dp688
g136
I5
ssI8
g234
sI9
g262
sI42
g512
sI43
g524
sI76
(dp689
g136
I6
ssI34
g447
sI77
(dp690
g136
I6
ssI80
(dp691
g136
I6
ssI108
(dp692
g136
I4
ssI86
(dp693
g136
I6
ssI73
g686
sI100
(dp694
g136
I6
ssI111
(dp695
g136
I7
sssI75
(dp696
I1
g153
sI2
g174
sI35
g458
sI4
g201
sI65
g624
sI49
g555
sI8
g235
sI9
g263
sI10
g274
sI34
g448
sI78
(dp697
g136
I4
ssI79
(dp698
g136
I7
ssI17
g329
sI86
(dp699
g136
I6
ssI24
g370
sI36
g465
sI26
g394
sI111
(dp700
g136
I7
ssI29
g419
sI62
g607
sI95
(dp701
g136
I7
sssI76
(dp702
I0
g142
sI1
g154
sI100
(dp703
g136
I7
ssI101
(dp704
g136
I5
ssI38
g481
sI39
g487
sI104
(dp705
g136
I5
ssI73
g682
sI42
g514
sI43
g521
sI44
g527
sI47
g547
sI105
(dp706
g136
I5
ssI111
(dp707
g136
I4
ssI27
g411
sI74
g689
ssI77
(dp708
I1
g156
sI2
g175
sI35
g459
sI4
g203
sI65
g625
sI74
g690
sI34
g449
sI111
(dp709
g136
I5
ssI80
(dp710
g136
I4
ssI81
(dp711
g136
I6
ssI86
(dp712
g136
I7
ssI24
g371
sI100
(dp713
g136
I6
ssI26
g395
sI60
g598
sI62
g609
ssI78
(dp714
I36
g466
sI49
g556
sI10
g275
sI75
g697
sI17
g331
sI62
g608
ssI79
(dp715
I64
g621
sI98
(dp716
g136
I6
ssI3
g187
sI75
g698
sI46
g538
sI61
g604
sI49
g557
sI82
(dp717
g136
I4
ssI110
(dp718
g136
I7
ssI58
g591
sI28
g415
sI29
g420
ssI80
(dp719
I1
g157
sI2
g177
sI35
g460
sI4
g204
sI101
(dp720
g136
I7
ssI81
(dp721
g136
I5
ssI65
g626
sI74
g691
sI34
g451
sI77
g710
sI113
(dp722
g136
I7
ssI86
(dp723
g136
I5
ssI24
g373
sI100
(dp724
g136
I6
ssI26
g397
sI111
(dp725
g136
I7
ssI60
g599
sI62
g610
ssI81
(dp726
I2
g170
sI77
g711
sI80
g721
sI90
(dp727
g136
I5
ssI24
g374
sI89
(dp728
g136
I5
ssI58
g590
sI60
g600
sI26
g398
ssI82
(dp729
I28
g413
sI29
g422
sI79
g717
ssI83
(dp730
I64
g622
sI3
g189
sI46
g539
sI88
(dp731
g136
I6
ssI87
(dp732
g136
I5
ssI56
g584
sI57
g588
ssI84
(dp733
I3
g190
sI102
(dp734
g136
I5
ssI11
g280
sI46
g540
sI107
(dp735
g136
I5
ssI85
(dp736
g136
I4
ssI22
g356
ssI85
(dp737
I3
g191
sI102
(dp738
g136
I7
ssI11
g283
sI46
g541
sI107
(dp739
g136
I7
ssI84
g736
sI22
g357
ssI86
(dp740
I1
g159
sI2
g179
sI35
g462
sI4
g207
sI65
g627
sI73
g683
sI74
g693
sI75
g699
sI108
(dp741
g136
I7
ssI34
g453
sI77
g712
sI80
g723
sI24
g376
sI26
g400
sI62
g612
ssI87
(dp742
I3
g192
sI46
g542
sI88
(dp743
g136
I5
ssI83
g732
sI54
g574
sI56
g585
ssI88
(dp744
I83
g731
sI3
g193
sI46
g543
sI87
g743
ssI89
(dp745
I4
g209
sI72
g675
sI9
g264
sI14
g315
sI81
g728
sI90
(dp746
g136
I4
ssI24
g377
sI68
g649
sI26
g401
sI60
g601
sI58
g594
ssI90
(dp747
I4
g212
sI81
g727
sI8
g246
sI9
g265
sI72
g676
sI89
g746
sI24
g381
sI68
g650
sI26
g402
sI60
g602
ssI91
(dp748
I32
g437
sI33
g441
sI96
(dp749
g136
I7
ssI54
g575
sI95
(dp750
g136
I7
sssI92
(dp751
I48
g551
sI68
g651
sI9
g266
sI12
g294
sI13
g305
sI112
(dp752
g136
I6
ssI111
(dp753
g136
I6
ssI16
g325
sI116
(dp754
g136
I6
ssI23
g366
sI93
(dp755
g136
I5
sssI93
(dp756
I48
g552
sI55
g582
sI12
g295
sI13
g306
sI111
(dp757
g136
I6
ssI16
g326
sI19
g345
sI116
(dp758
g136
I6
ssI53
g571
sI23
g367
sI25
g391
sI92
g755
ssI94
(dp759
I67
g642
sI68
g652
sI69
g660
sI70
g666
sI71
g671
sI72
g677
sI14
g316
sI117
(dp760
g136
I6
sssI95
(dp761
I32
g438
sI33
g443
sI96
(dp762
g136
I4
ssI10
g277
sI75
g701
sI49
g558
sI18
g335
sI21
g350
sI54
g576
sI91
g750
ssI96
(dp763
I32
g433
sI33
g440
sI9
g267
sI10
g271
sI49
g554
sI18
g333
sI21
g348
sI54
g573
sI91
g749
sI95
g762
ssI97
(dp764
I66
g630
sI37
g469
sI40
g492
sI41
g501
sI45
g530
sI114
(dp765
g136
I7
ssI116
(dp766
g136
I7
ssI98
(dp767
g136
I4
ssI63
g615
ssI98
(dp768
I97
g767
sI66
g631
sI37
g471
sI40
g498
sI41
g506
sI45
g534
sI79
g716
sI119
(dp769
g136
I7
ssI63
g618
ssI99
(dp770
I105
(dp771
g136
I7
ssI106
(dp772
g136
I4
ssI109
(dp773
g136
I5
ssI110
(dp774
g136
I5
sssI100
(dp775
I101
(dp776
g136
I4
ssI104
(dp777
g136
I6
ssI73
g679
sI42
g509
sI43
g518
sI76
g703
sI77
g713
sI80
g724
sI108
(dp778
g136
I7
ssI105
(dp779
g136
I6
ssI74
g694
ssI101
(dp780
I100
g776
sI104
(dp781
g136
I5
ssI73
g680
sI42
g510
sI43
g519
sI76
g704
sI80
g720
sI108
(dp782
g136
I6
ssI105
(dp783
g136
I5
ssI74
g688
ssI102
(dp784
I66
g632
sI107
(dp785
g136
I4
ssI37
g472
sI40
g494
sI41
g503
sI11
g281
sI45
g532
sI84
g734
sI85
g738
sI22
g353
sI63
g617
ssI103
(dp786
I113
(dp787
g136
I4
sssI104
(dp788
I0
g138
sI100
g777
sI101
g781
sI73
g681
sI76
g705
sI47
g545
sI105
(dp789
g136
I4
sssI105
(dp790
I0
g143
sI99
g771
sI100
g779
sI101
g783
sI104
g789
sI73
g684
sI106
(dp791
g136
I7
ssI43
g523
sI76
g706
sI109
(dp792
g136
I7
ssI110
(dp793
g136
I7
ssI47
g548
sI105
(dp794
g136
I4
sssI106
(dp795
I9
g268
sI99
g772
sI109
(dp796
g136
I5
ssI110
(dp797
g136
I5
ssI105
g791
ssI107
(dp798
I66
g633
sI37
g475
sI102
g785
sI40
g496
sI41
g504
sI11
g279
sI45
g533
sI84
g735
sI85
g739
sI22
g352
ssI108
(dp799
I1
g163
sI100
g778
sI101
g782
sI8
g236
sI42
g516
sI43
g522
sI86
g741
sI74
g692
ssI109
(dp800
I105
g792
sI106
g796
sI99
g773
sI110
(dp801
g136
I5
ssI31
g431
ssI110
(dp802
I99
g774
sI8
g237
sI9
g269
sI106
g797
sI109
g801
sI79
g718
sI105
g793
ssI111
(dp803
I1
g162
sI2
g176
sI4
g211
sI8
g245
sI12
g288
sI13
g299
sI16
g321
sI19
g338
sI23
g361
sI24
g372
sI25
g387
sI26
g396
sI34
g450
sI53
g566
sI55
g579
sI62
g613
sI65
g628
sI73
g685
sI74
g695
sI75
g700
sI76
g707
sI77
g709
sI80
g725
sI92
g753
sI93
g757
sI112
(dp804
g136
I5
sssI112
(dp805
I48
g550
sI12
g285
sI13
g298
sI111
g804
sI16
g320
sI116
(dp806
g136
I7
ssI92
g752
ssI113
(dp807
I1
g158
sI2
g178
sI35
g461
sI4
g205
sI103
g787
sI34
g452
sI80
g722
sI62
g611
ssI114
(dp808
I97
g765
sI116
(dp809
g136
I4
ssI30
g424
sI31
g429
ssI115
(dp810
I6
g225
sI7
g229
sI119
(dp811
g136
I5
ssI19
g339
sI53
g567
sI55
g580
sI25
g385
ssI116
(dp812
I97
g766
sI112
g806
sI55
g581
sI12
g291
sI13
g302
sI16
g323
sI114
g809
sI19
g340
sI53
g568
sI23
g362
sI25
g388
sI92
g754
sI93
g758
sI30
g425
sI31
g430
ssI117
(dp813
I67
g640
sI68
g647
sI69
g658
sI70
g664
sI71
g669
sI72
g673
sI14
g314
sI50
g561
sI117
(dp814
g136
I4
ssI118
(dp815
g136
I4
ssI94
g760
ssI118
(dp816
I67
g641
sI68
g648
sI69
g659
sI70
g665
sI71
g670
sI72
g674
sI117
g815
ssI119
(dp817
I98
g769
sI115
g811
sI6
g227
sI7
g230
sI19
g344
sI53
g570
sI55
g578
sI25
g390
sssS'adj'
p818
g133
sb.